target datalayout = "e-m:e-p270:32:32-p271:32:32-p272:64:64-i64:64-i128:128-f80:128-n8:16:32:64-S128"
target triple = "x86_64-pc-linux-gnu"

%struct.SoftAesBlock = type { i32, i32, i32, i32 }

; Function Attrs: alwaysinline nounwind
define internal ptr @memcpy.inline(ptr noalias nonnull %0, ptr noalias nonnull %1, i64 %2) #3 {
  %4 = alloca ptr, align 8
  %5 = alloca ptr, align 8
  %6 = alloca i64, align 8
  store ptr %0, ptr %4, align 8
  store ptr %1, ptr %5, align 8
  store i64 %2, ptr %6, align 8
  %7 = load ptr, ptr %4, align 8
  %8 = load ptr, ptr %5, align 8
  %9 = load i64, ptr %6, align 8
  %10 = load ptr, ptr %4, align 8
  %11 = call i64 @llvm.objectsize.i64.p0(ptr %10, i1 false, i1 true, i1 true)
  %12 = call ptr @__memcpy_chk(ptr noundef %7, ptr noundef %8, i64 noundef %9, i64 noundef %11) #8
  ret ptr %12
}

; Function Attrs: inlinehint nounwind ssp uwtable
define internal void @store32_le(ptr noundef %0, i32 noundef %1) #2 {
  %3 = alloca ptr, align 8
  %4 = alloca i32, align 4
  store ptr %0, ptr %3, align 8
  store i32 %1, ptr %4, align 4
  %5 = load ptr, ptr %3, align 8
  %6 = call ptr @memcpy.inline(ptr noundef %5, ptr noundef %4, i64 noundef 4) #8
  ret void
}

; Function Attrs: inlinehint nounwind ssp uwtable
define internal i32 @load32_le(ptr noundef %0) #2 {
  %2 = alloca ptr, align 8
  %3 = alloca i32, align 4
  store ptr %0, ptr %2, align 8
  call void @llvm.lifetime.start.p0(i64 4, ptr %3) #8
  %4 = load ptr, ptr %2, align 8
  %5 = call ptr @memcpy.inline(ptr noundef %3, ptr noundef %4, i64 noundef 4) #8
  %6 = load i32, ptr %3, align 4
  call void @llvm.lifetime.end.p0(i64 4, ptr %3) #8
  ret i32 %6
}

; Function Attrs: inlinehint nounwind ssp uwtable
define internal void @softaes_block_store(ptr noundef %0, i64 %1, i64 %2) #2 {
  %4 = alloca %struct.SoftAesBlock, align 4
  %5 = alloca ptr, align 8
  %6 = getelementptr inbounds nuw { i64, i64 }, ptr %4, i32 0, i32 0
  store i64 %1, ptr %6, align 4
  %7 = getelementptr inbounds nuw { i64, i64 }, ptr %4, i32 0, i32 1
  store i64 %2, ptr %7, align 4
  store ptr %0, ptr %5, align 8
  %8 = load ptr, ptr %5, align 8
  %9 = getelementptr i8, ptr %8, i64 0
  %10 = getelementptr inbounds nuw %struct.SoftAesBlock, ptr %4, i32 0, i32 0
  %11 = load i32, ptr %10, align 4
  call void @store32_le(ptr noundef %9, i32 noundef %11)
  %12 = load ptr, ptr %5, align 8
  %13 = getelementptr i8, ptr %12, i64 4
  %14 = getelementptr inbounds nuw %struct.SoftAesBlock, ptr %4, i32 0, i32 1
  %15 = load i32, ptr %14, align 4
  call void @store32_le(ptr noundef %13, i32 noundef %15)
  %16 = load ptr, ptr %5, align 8
  %17 = getelementptr i8, ptr %16, i64 8
  %18 = getelementptr inbounds nuw %struct.SoftAesBlock, ptr %4, i32 0, i32 2
  %19 = load i32, ptr %18, align 4
  call void @store32_le(ptr noundef %17, i32 noundef %19)
  %20 = load ptr, ptr %5, align 8
  %21 = getelementptr i8, ptr %20, i64 12
  %22 = getelementptr inbounds nuw %struct.SoftAesBlock, ptr %4, i32 0, i32 3
  %23 = load i32, ptr %22, align 4
  call void @store32_le(ptr noundef %21, i32 noundef %23)
  ret void
}

; Function Attrs: inlinehint nounwind ssp uwtable
define internal { i64, i64 } @softaes_block_and(i64 %0, i64 %1, i64 %2, i64 %3) #2 {
  %5 = alloca %struct.SoftAesBlock, align 4
  %6 = alloca %struct.SoftAesBlock, align 4
  %7 = alloca %struct.SoftAesBlock, align 4
  %8 = getelementptr inbounds nuw { i64, i64 }, ptr %6, i32 0, i32 0
  store i64 %0, ptr %8, align 4
  %9 = getelementptr inbounds nuw { i64, i64 }, ptr %6, i32 0, i32 1
  store i64 %1, ptr %9, align 4
  %10 = getelementptr inbounds nuw { i64, i64 }, ptr %7, i32 0, i32 0
  store i64 %2, ptr %10, align 4
  %11 = getelementptr inbounds nuw { i64, i64 }, ptr %7, i32 0, i32 1
  store i64 %3, ptr %11, align 4
  %12 = getelementptr inbounds nuw %struct.SoftAesBlock, ptr %5, i32 0, i32 0
  %13 = getelementptr inbounds nuw %struct.SoftAesBlock, ptr %6, i32 0, i32 0
  %14 = load i32, ptr %13, align 4
  %15 = getelementptr inbounds nuw %struct.SoftAesBlock, ptr %7, i32 0, i32 0
  %16 = load i32, ptr %15, align 4
  %17 = and i32 %14, %16
  store i32 %17, ptr %12, align 4
  %18 = getelementptr inbounds nuw %struct.SoftAesBlock, ptr %5, i32 0, i32 1
  %19 = getelementptr inbounds nuw %struct.SoftAesBlock, ptr %6, i32 0, i32 1
  %20 = load i32, ptr %19, align 4
  %21 = getelementptr inbounds nuw %struct.SoftAesBlock, ptr %7, i32 0, i32 1
  %22 = load i32, ptr %21, align 4
  %23 = and i32 %20, %22
  store i32 %23, ptr %18, align 4
  %24 = getelementptr inbounds nuw %struct.SoftAesBlock, ptr %5, i32 0, i32 2
  %25 = getelementptr inbounds nuw %struct.SoftAesBlock, ptr %6, i32 0, i32 2
  %26 = load i32, ptr %25, align 4
  %27 = getelementptr inbounds nuw %struct.SoftAesBlock, ptr %7, i32 0, i32 2
  %28 = load i32, ptr %27, align 4
  %29 = and i32 %26, %28
  store i32 %29, ptr %24, align 4
  %30 = getelementptr inbounds nuw %struct.SoftAesBlock, ptr %5, i32 0, i32 3
  %31 = getelementptr inbounds nuw %struct.SoftAesBlock, ptr %6, i32 0, i32 3
  %32 = load i32, ptr %31, align 4
  %33 = getelementptr inbounds nuw %struct.SoftAesBlock, ptr %7, i32 0, i32 3
  %34 = load i32, ptr %33, align 4
  %35 = and i32 %32, %34
  store i32 %35, ptr %30, align 4
  %36 = load { i64, i64 }, ptr %5, align 4
  ret { i64, i64 } %36
}

; Function Attrs: inlinehint nounwind ssp uwtable
define internal { i64, i64 } @softaes_block_xor(i64 %0, i64 %1, i64 %2, i64 %3) #2 {
  %5 = alloca %struct.SoftAesBlock, align 4
  %6 = alloca %struct.SoftAesBlock, align 4
  %7 = alloca %struct.SoftAesBlock, align 4
  %8 = getelementptr inbounds nuw { i64, i64 }, ptr %6, i32 0, i32 0
  store i64 %0, ptr %8, align 4
  %9 = getelementptr inbounds nuw { i64, i64 }, ptr %6, i32 0, i32 1
  store i64 %1, ptr %9, align 4
  %10 = getelementptr inbounds nuw { i64, i64 }, ptr %7, i32 0, i32 0
  store i64 %2, ptr %10, align 4
  %11 = getelementptr inbounds nuw { i64, i64 }, ptr %7, i32 0, i32 1
  store i64 %3, ptr %11, align 4
  %12 = getelementptr inbounds nuw %struct.SoftAesBlock, ptr %5, i32 0, i32 0
  %13 = getelementptr inbounds nuw %struct.SoftAesBlock, ptr %6, i32 0, i32 0
  %14 = load i32, ptr %13, align 4
  %15 = getelementptr inbounds nuw %struct.SoftAesBlock, ptr %7, i32 0, i32 0
  %16 = load i32, ptr %15, align 4
  %17 = xor i32 %14, %16
  store i32 %17, ptr %12, align 4
  %18 = getelementptr inbounds nuw %struct.SoftAesBlock, ptr %5, i32 0, i32 1
  %19 = getelementptr inbounds nuw %struct.SoftAesBlock, ptr %6, i32 0, i32 1
  %20 = load i32, ptr %19, align 4
  %21 = getelementptr inbounds nuw %struct.SoftAesBlock, ptr %7, i32 0, i32 1
  %22 = load i32, ptr %21, align 4
  %23 = xor i32 %20, %22
  store i32 %23, ptr %18, align 4
  %24 = getelementptr inbounds nuw %struct.SoftAesBlock, ptr %5, i32 0, i32 2
  %25 = getelementptr inbounds nuw %struct.SoftAesBlock, ptr %6, i32 0, i32 2
  %26 = load i32, ptr %25, align 4
  %27 = getelementptr inbounds nuw %struct.SoftAesBlock, ptr %7, i32 0, i32 2
  %28 = load i32, ptr %27, align 4
  %29 = xor i32 %26, %28
  store i32 %29, ptr %24, align 4
  %30 = getelementptr inbounds nuw %struct.SoftAesBlock, ptr %5, i32 0, i32 3
  %31 = getelementptr inbounds nuw %struct.SoftAesBlock, ptr %6, i32 0, i32 3
  %32 = load i32, ptr %31, align 4
  %33 = getelementptr inbounds nuw %struct.SoftAesBlock, ptr %7, i32 0, i32 3
  %34 = load i32, ptr %33, align 4
  %35 = xor i32 %32, %34
  store i32 %35, ptr %30, align 4
  %36 = load { i64, i64 }, ptr %5, align 4
  ret { i64, i64 } %36
}

; Function Attrs: inlinehint nounwind ssp uwtable
define internal { i64, i64 } @softaes_block_load(ptr noundef %0) #2 {
  %2 = alloca %struct.SoftAesBlock, align 4
  %3 = alloca ptr, align 8
  store ptr %0, ptr %3, align 8
  %4 = getelementptr inbounds nuw %struct.SoftAesBlock, ptr %2, i32 0, i32 0
  %5 = load ptr, ptr %3, align 8
  %6 = getelementptr i8, ptr %5, i64 0
  %7 = call i32 @load32_le(ptr noundef %6)
  store i32 %7, ptr %4, align 4
  %8 = getelementptr inbounds nuw %struct.SoftAesBlock, ptr %2, i32 0, i32 1
  %9 = load ptr, ptr %3, align 8
  %10 = getelementptr i8, ptr %9, i64 4
  %11 = call i32 @load32_le(ptr noundef %10)
  store i32 %11, ptr %8, align 4
  %12 = getelementptr inbounds nuw %struct.SoftAesBlock, ptr %2, i32 0, i32 2
  %13 = load ptr, ptr %3, align 8
  %14 = getelementptr i8, ptr %13, i64 8
  %15 = call i32 @load32_le(ptr noundef %14)
  store i32 %15, ptr %12, align 4
  %16 = getelementptr inbounds nuw %struct.SoftAesBlock, ptr %2, i32 0, i32 3
  %17 = load ptr, ptr %3, align 8
  %18 = getelementptr i8, ptr %17, i64 12
  %19 = call i32 @load32_le(ptr noundef %18)
  store i32 %19, ptr %16, align 4
  %20 = load { i64, i64 }, ptr %2, align 4
  ret { i64, i64 } %20
}

; Function Attrs: nounwind ssp uwtable
define internal void @aegis128l_enc(ptr noundef %0, ptr noundef %1, ptr noundef %2) #0 {
  %4 = alloca ptr, align 8
  %5 = alloca ptr, align 8
  %6 = alloca ptr, align 8
  %7 = alloca %struct.SoftAesBlock, align 4
  %8 = alloca %struct.SoftAesBlock, align 4
  %9 = alloca %struct.SoftAesBlock, align 4
  %10 = alloca %struct.SoftAesBlock, align 4
  %11 = alloca %struct.SoftAesBlock, align 4
  %12 = alloca %struct.SoftAesBlock, align 4
  %13 = alloca %struct.SoftAesBlock, align 4
  %14 = alloca %struct.SoftAesBlock, align 4
  %15 = alloca %struct.SoftAesBlock, align 4
  %16 = alloca %struct.SoftAesBlock, align 4
  %17 = alloca %struct.SoftAesBlock, align 4
  %18 = alloca %struct.SoftAesBlock, align 4
  %19 = alloca %struct.SoftAesBlock, align 4
  %20 = alloca %struct.SoftAesBlock, align 4
  store ptr %0, ptr %4, align 8
  store ptr %1, ptr %5, align 8
  store ptr %2, ptr %6, align 8
  call void @llvm.lifetime.start.p0(i64 16, ptr %7) #8
  call void @llvm.lifetime.start.p0(i64 16, ptr %8) #8
  call void @llvm.lifetime.start.p0(i64 16, ptr %9) #8
  call void @llvm.lifetime.start.p0(i64 16, ptr %10) #8
  call void @llvm.lifetime.start.p0(i64 16, ptr %11) #8
  %21 = load ptr, ptr %5, align 8
  %22 = call { i64, i64 } @softaes_block_load(ptr noundef %21)
  %23 = getelementptr inbounds nuw { i64, i64 }, ptr %11, i32 0, i32 0
  %24 = extractvalue { i64, i64 } %22, 0
  store i64 %24, ptr %23, align 4
  %25 = getelementptr inbounds nuw { i64, i64 }, ptr %11, i32 0, i32 1
  %26 = extractvalue { i64, i64 } %22, 1
  store i64 %26, ptr %25, align 4
  call void @llvm.memcpy.p0.p0.i64(ptr align 4 %7, ptr align 4 %11, i64 16, i1 false)
  call void @llvm.lifetime.end.p0(i64 16, ptr %11) #8
  call void @llvm.lifetime.start.p0(i64 16, ptr %12) #8
  %27 = load ptr, ptr %5, align 8
  %28 = getelementptr i8, ptr %27, i64 16
  %29 = call { i64, i64 } @softaes_block_load(ptr noundef %28)
  %30 = getelementptr inbounds nuw { i64, i64 }, ptr %12, i32 0, i32 0
  %31 = extractvalue { i64, i64 } %29, 0
  store i64 %31, ptr %30, align 4
  %32 = getelementptr inbounds nuw { i64, i64 }, ptr %12, i32 0, i32 1
  %33 = extractvalue { i64, i64 } %29, 1
  store i64 %33, ptr %32, align 4
  call void @llvm.memcpy.p0.p0.i64(ptr align 4 %8, ptr align 4 %12, i64 16, i1 false)
  call void @llvm.lifetime.end.p0(i64 16, ptr %12) #8
  call void @llvm.lifetime.start.p0(i64 16, ptr %13) #8
  %34 = load ptr, ptr %6, align 8
  %35 = getelementptr %struct.SoftAesBlock, ptr %34, i64 6
  %36 = getelementptr inbounds nuw { i64, i64 }, ptr %7, i32 0, i32 0
  %37 = load i64, ptr %36, align 4
  %38 = getelementptr inbounds nuw { i64, i64 }, ptr %7, i32 0, i32 1
  %39 = load i64, ptr %38, align 4
  %40 = getelementptr inbounds nuw { i64, i64 }, ptr %35, i32 0, i32 0
  %41 = load i64, ptr %40, align 4
  %42 = getelementptr inbounds nuw { i64, i64 }, ptr %35, i32 0, i32 1
  %43 = load i64, ptr %42, align 4
  %44 = call { i64, i64 } @softaes_block_xor(i64 %37, i64 %39, i64 %41, i64 %43)
  %45 = getelementptr inbounds nuw { i64, i64 }, ptr %13, i32 0, i32 0
  %46 = extractvalue { i64, i64 } %44, 0
  store i64 %46, ptr %45, align 4
  %47 = getelementptr inbounds nuw { i64, i64 }, ptr %13, i32 0, i32 1
  %48 = extractvalue { i64, i64 } %44, 1
  store i64 %48, ptr %47, align 4
  call void @llvm.memcpy.p0.p0.i64(ptr align 4 %9, ptr align 4 %13, i64 16, i1 false)
  call void @llvm.lifetime.end.p0(i64 16, ptr %13) #8
  call void @llvm.lifetime.start.p0(i64 16, ptr %14) #8
  %49 = load ptr, ptr %6, align 8
  %50 = getelementptr %struct.SoftAesBlock, ptr %49, i64 1
  %51 = getelementptr inbounds nuw { i64, i64 }, ptr %9, i32 0, i32 0
  %52 = load i64, ptr %51, align 4
  %53 = getelementptr inbounds nuw { i64, i64 }, ptr %9, i32 0, i32 1
  %54 = load i64, ptr %53, align 4
  %55 = getelementptr inbounds nuw { i64, i64 }, ptr %50, i32 0, i32 0
  %56 = load i64, ptr %55, align 4
  %57 = getelementptr inbounds nuw { i64, i64 }, ptr %50, i32 0, i32 1
  %58 = load i64, ptr %57, align 4
  %59 = call { i64, i64 } @softaes_block_xor(i64 %52, i64 %54, i64 %56, i64 %58)
  %60 = getelementptr inbounds nuw { i64, i64 }, ptr %14, i32 0, i32 0
  %61 = extractvalue { i64, i64 } %59, 0
  store i64 %61, ptr %60, align 4
  %62 = getelementptr inbounds nuw { i64, i64 }, ptr %14, i32 0, i32 1
  %63 = extractvalue { i64, i64 } %59, 1
  store i64 %63, ptr %62, align 4
  call void @llvm.memcpy.p0.p0.i64(ptr align 4 %9, ptr align 4 %14, i64 16, i1 false)
  call void @llvm.lifetime.end.p0(i64 16, ptr %14) #8
  call void @llvm.lifetime.start.p0(i64 16, ptr %15) #8
  %64 = load ptr, ptr %6, align 8
  %65 = getelementptr %struct.SoftAesBlock, ptr %64, i64 5
  %66 = getelementptr inbounds nuw { i64, i64 }, ptr %8, i32 0, i32 0
  %67 = load i64, ptr %66, align 4
  %68 = getelementptr inbounds nuw { i64, i64 }, ptr %8, i32 0, i32 1
  %69 = load i64, ptr %68, align 4
  %70 = getelementptr inbounds nuw { i64, i64 }, ptr %65, i32 0, i32 0
  %71 = load i64, ptr %70, align 4
  %72 = getelementptr inbounds nuw { i64, i64 }, ptr %65, i32 0, i32 1
  %73 = load i64, ptr %72, align 4
  %74 = call { i64, i64 } @softaes_block_xor(i64 %67, i64 %69, i64 %71, i64 %73)
  %75 = getelementptr inbounds nuw { i64, i64 }, ptr %15, i32 0, i32 0
  %76 = extractvalue { i64, i64 } %74, 0
  store i64 %76, ptr %75, align 4
  %77 = getelementptr inbounds nuw { i64, i64 }, ptr %15, i32 0, i32 1
  %78 = extractvalue { i64, i64 } %74, 1
  store i64 %78, ptr %77, align 4
  call void @llvm.memcpy.p0.p0.i64(ptr align 4 %10, ptr align 4 %15, i64 16, i1 false)
  call void @llvm.lifetime.end.p0(i64 16, ptr %15) #8
  call void @llvm.lifetime.start.p0(i64 16, ptr %16) #8
  %79 = load ptr, ptr %6, align 8
  %80 = getelementptr %struct.SoftAesBlock, ptr %79, i64 2
  %81 = getelementptr inbounds nuw { i64, i64 }, ptr %10, i32 0, i32 0
  %82 = load i64, ptr %81, align 4
  %83 = getelementptr inbounds nuw { i64, i64 }, ptr %10, i32 0, i32 1
  %84 = load i64, ptr %83, align 4
  %85 = getelementptr inbounds nuw { i64, i64 }, ptr %80, i32 0, i32 0
  %86 = load i64, ptr %85, align 4
  %87 = getelementptr inbounds nuw { i64, i64 }, ptr %80, i32 0, i32 1
  %88 = load i64, ptr %87, align 4
  %89 = call { i64, i64 } @softaes_block_xor(i64 %82, i64 %84, i64 %86, i64 %88)
  %90 = getelementptr inbounds nuw { i64, i64 }, ptr %16, i32 0, i32 0
  %91 = extractvalue { i64, i64 } %89, 0
  store i64 %91, ptr %90, align 4
  %92 = getelementptr inbounds nuw { i64, i64 }, ptr %16, i32 0, i32 1
  %93 = extractvalue { i64, i64 } %89, 1
  store i64 %93, ptr %92, align 4
  call void @llvm.memcpy.p0.p0.i64(ptr align 4 %10, ptr align 4 %16, i64 16, i1 false)
  call void @llvm.lifetime.end.p0(i64 16, ptr %16) #8
  call void @llvm.lifetime.start.p0(i64 16, ptr %17) #8
  %94 = load ptr, ptr %6, align 8
  %95 = getelementptr %struct.SoftAesBlock, ptr %94, i64 2
  %96 = load ptr, ptr %6, align 8
  %97 = getelementptr %struct.SoftAesBlock, ptr %96, i64 3
  %98 = getelementptr inbounds nuw { i64, i64 }, ptr %95, i32 0, i32 0
  %99 = load i64, ptr %98, align 4
  %100 = getelementptr inbounds nuw { i64, i64 }, ptr %95, i32 0, i32 1
  %101 = load i64, ptr %100, align 4
  %102 = getelementptr inbounds nuw { i64, i64 }, ptr %97, i32 0, i32 0
  %103 = load i64, ptr %102, align 4
  %104 = getelementptr inbounds nuw { i64, i64 }, ptr %97, i32 0, i32 1
  %105 = load i64, ptr %104, align 4
  %106 = call { i64, i64 } @softaes_block_and(i64 %99, i64 %101, i64 %103, i64 %105)
  %107 = getelementptr inbounds nuw { i64, i64 }, ptr %18, i32 0, i32 0
  %108 = extractvalue { i64, i64 } %106, 0
  store i64 %108, ptr %107, align 4
  %109 = getelementptr inbounds nuw { i64, i64 }, ptr %18, i32 0, i32 1
  %110 = extractvalue { i64, i64 } %106, 1
  store i64 %110, ptr %109, align 4
  %111 = getelementptr inbounds nuw { i64, i64 }, ptr %9, i32 0, i32 0
  %112 = load i64, ptr %111, align 4
  %113 = getelementptr inbounds nuw { i64, i64 }, ptr %9, i32 0, i32 1
  %114 = load i64, ptr %113, align 4
  %115 = getelementptr inbounds nuw { i64, i64 }, ptr %18, i32 0, i32 0
  %116 = load i64, ptr %115, align 4
  %117 = getelementptr inbounds nuw { i64, i64 }, ptr %18, i32 0, i32 1
  %118 = load i64, ptr %117, align 4
  %119 = call { i64, i64 } @softaes_block_xor(i64 %112, i64 %114, i64 %116, i64 %118)
  %120 = getelementptr inbounds nuw { i64, i64 }, ptr %17, i32 0, i32 0
  %121 = extractvalue { i64, i64 } %119, 0
  store i64 %121, ptr %120, align 4
  %122 = getelementptr inbounds nuw { i64, i64 }, ptr %17, i32 0, i32 1
  %123 = extractvalue { i64, i64 } %119, 1
  store i64 %123, ptr %122, align 4
  call void @llvm.memcpy.p0.p0.i64(ptr align 4 %9, ptr align 4 %17, i64 16, i1 false)
  call void @llvm.lifetime.end.p0(i64 16, ptr %17) #8
  call void @llvm.lifetime.start.p0(i64 16, ptr %19) #8
  %124 = load ptr, ptr %6, align 8
  %125 = getelementptr %struct.SoftAesBlock, ptr %124, i64 6
  %126 = load ptr, ptr %6, align 8
  %127 = getelementptr %struct.SoftAesBlock, ptr %126, i64 7
  %128 = getelementptr inbounds nuw { i64, i64 }, ptr %125, i32 0, i32 0
  %129 = load i64, ptr %128, align 4
  %130 = getelementptr inbounds nuw { i64, i64 }, ptr %125, i32 0, i32 1
  %131 = load i64, ptr %130, align 4
  %132 = getelementptr inbounds nuw { i64, i64 }, ptr %127, i32 0, i32 0
  %133 = load i64, ptr %132, align 4
  %134 = getelementptr inbounds nuw { i64, i64 }, ptr %127, i32 0, i32 1
  %135 = load i64, ptr %134, align 4
  %136 = call { i64, i64 } @softaes_block_and(i64 %129, i64 %131, i64 %133, i64 %135)
  %137 = getelementptr inbounds nuw { i64, i64 }, ptr %20, i32 0, i32 0
  %138 = extractvalue { i64, i64 } %136, 0
  store i64 %138, ptr %137, align 4
  %139 = getelementptr inbounds nuw { i64, i64 }, ptr %20, i32 0, i32 1
  %140 = extractvalue { i64, i64 } %136, 1
  store i64 %140, ptr %139, align 4
  %141 = getelementptr inbounds nuw { i64, i64 }, ptr %10, i32 0, i32 0
  %142 = load i64, ptr %141, align 4
  %143 = getelementptr inbounds nuw { i64, i64 }, ptr %10, i32 0, i32 1
  %144 = load i64, ptr %143, align 4
  %145 = getelementptr inbounds nuw { i64, i64 }, ptr %20, i32 0, i32 0
  %146 = load i64, ptr %145, align 4
  %147 = getelementptr inbounds nuw { i64, i64 }, ptr %20, i32 0, i32 1
  %148 = load i64, ptr %147, align 4
  %149 = call { i64, i64 } @softaes_block_xor(i64 %142, i64 %144, i64 %146, i64 %148)
  %150 = getelementptr inbounds nuw { i64, i64 }, ptr %19, i32 0, i32 0
  %151 = extractvalue { i64, i64 } %149, 0
  store i64 %151, ptr %150, align 4
  %152 = getelementptr inbounds nuw { i64, i64 }, ptr %19, i32 0, i32 1
  %153 = extractvalue { i64, i64 } %149, 1
  store i64 %153, ptr %152, align 4
  call void @llvm.memcpy.p0.p0.i64(ptr align 4 %10, ptr align 4 %19, i64 16, i1 false)
  call void @llvm.lifetime.end.p0(i64 16, ptr %19) #8
  %154 = load ptr, ptr %4, align 8
  %155 = getelementptr inbounds nuw { i64, i64 }, ptr %9, i32 0, i32 0
  %156 = load i64, ptr %155, align 4
  %157 = getelementptr inbounds nuw { i64, i64 }, ptr %9, i32 0, i32 1
  %158 = load i64, ptr %157, align 4
  call void @softaes_block_store(ptr noundef %154, i64 %156, i64 %158)
  %159 = load ptr, ptr %4, align 8
  %160 = getelementptr i8, ptr %159, i64 16
  %161 = getelementptr inbounds nuw { i64, i64 }, ptr %10, i32 0, i32 0
  %162 = load i64, ptr %161, align 4
  %163 = getelementptr inbounds nuw { i64, i64 }, ptr %10, i32 0, i32 1
  %164 = load i64, ptr %163, align 4
  call void @softaes_block_store(ptr noundef %160, i64 %162, i64 %164)
  %165 = load ptr, ptr %6, align 8
  %166 = getelementptr inbounds nuw { i64, i64 }, ptr %7, i32 0, i32 0
  %167 = load i64, ptr %166, align 4
  %168 = getelementptr inbounds nuw { i64, i64 }, ptr %7, i32 0, i32 1
  %169 = load i64, ptr %168, align 4
  %170 = getelementptr inbounds nuw { i64, i64 }, ptr %8, i32 0, i32 0
  %171 = load i64, ptr %170, align 4
  %172 = getelementptr inbounds nuw { i64, i64 }, ptr %8, i32 0, i32 1
  %173 = load i64, ptr %172, align 4
  call void @aegis128l_update(ptr noundef %165, i64 %167, i64 %169, i64 %171, i64 %173)
  call void @llvm.lifetime.end.p0(i64 16, ptr %10) #8
  call void @llvm.lifetime.end.p0(i64 16, ptr %9) #8
  call void @llvm.lifetime.end.p0(i64 16, ptr %8) #8
  call void @llvm.lifetime.end.p0(i64 16, ptr %7) #8
  ret void
}