; Function Attrs: nounwind ssp uwtable
define internal fastcc void @aegis128l_enc(ptr noundef %0, ptr noundef readonly captures(none) %1, ptr noundef nonnull captures(none) %2) unnamed_addr #0 {
  %4 = load i64, ptr %1, align 1
  %5 = getelementptr i8, ptr %1, i64 8
  %6 = load i64, ptr %5, align 1
  %7 = getelementptr i8, ptr %1, i64 16
  %8 = load i64, ptr %7, align 1
  %9 = getelementptr i8, ptr %1, i64 24
  %10 = load i64, ptr %9, align 1
  %11 = getelementptr i8, ptr %2, i64 96
  %12 = load i64, ptr %11, align 4
  %13 = getelementptr i8, ptr %2, i64 104
  %14 = load i64, ptr %13, align 4
  %15 = getelementptr i8, ptr %2, i64 16
  %16 = load i64, ptr %15, align 4
  %17 = getelementptr i8, ptr %2, i64 24
  %18 = load i64, ptr %17, align 4
  %19 = getelementptr i8, ptr %2, i64 80
  %20 = load i64, ptr %19, align 4
  %21 = getelementptr i8, ptr %2, i64 88
  %22 = load i64, ptr %21, align 4
  %23 = getelementptr i8, ptr %2, i64 32
  %24 = load i64, ptr %23, align 4
  %25 = getelementptr i8, ptr %2, i64 40
  %26 = load i64, ptr %25, align 4
  %27 = getelementptr i8, ptr %2, i64 48
  %28 = load i64, ptr %27, align 4
  %29 = getelementptr i8, ptr %2, i64 56
  %30 = load i64, ptr %29, align 4
  %31 = and i64 %28, %24
  %32 = and i64 %30, %26
  %33 = xor i64 %16, %31
  %34 = xor i64 %33, %4
  %35 = xor i64 %34, %12
  %36 = xor i64 %18, %32
  %37 = xor i64 %36, %6
  %38 = xor i64 %37, %14
  %39 = getelementptr i8, ptr %2, i64 112
  %40 = load i64, ptr %39, align 4
  %41 = getelementptr i8, ptr %2, i64 120
  %42 = load i64, ptr %41, align 4
  %43 = and i64 %40, %12
  %44 = and i64 %42, %14
  %45 = xor i64 %20, %43
  %46 = xor i64 %45, %8
  %47 = xor i64 %46, %24
  %48 = xor i64 %22, %44
  %49 = xor i64 %48, %10
  %50 = xor i64 %49, %26
  %.sroa.0.0.extract.trunc.i = trunc i64 %35 to i32
  %.sroa.2.0.extract.shift.i = lshr i64 %35, 32
  %.sroa.2.0.extract.trunc.i = trunc nuw i64 %.sroa.2.0.extract.shift.i to i32
  %.sroa.3.8.extract.trunc.i = trunc i64 %38 to i32
  %.sroa.5.8.extract.shift.i = lshr i64 %38, 32
  %.sroa.5.8.extract.trunc.i = trunc nuw i64 %.sroa.5.8.extract.shift.i to i32
  store i32 %.sroa.0.0.extract.trunc.i, ptr %0, align 1
  %51 = getelementptr i8, ptr %0, i64 4
  store i32 %.sroa.2.0.extract.trunc.i, ptr %51, align 1
  %52 = getelementptr i8, ptr %0, i64 8
  store i32 %.sroa.3.8.extract.trunc.i, ptr %52, align 1
  %53 = getelementptr i8, ptr %0, i64 12
  store i32 %.sroa.5.8.extract.trunc.i, ptr %53, align 1
  %54 = getelementptr i8, ptr %0, i64 16
  %.sroa.0.0.extract.trunc.i66 = trunc i64 %47 to i32
  %.sroa.2.0.extract.shift.i67 = lshr i64 %47, 32
  %.sroa.2.0.extract.trunc.i68 = trunc nuw i64 %.sroa.2.0.extract.shift.i67 to i32
  %.sroa.3.8.extract.trunc.i69 = trunc i64 %50 to i32
  %.sroa.5.8.extract.shift.i70 = lshr i64 %50, 32
  %.sroa.5.8.extract.trunc.i71 = trunc nuw i64 %.sroa.5.8.extract.shift.i70 to i32
  store i32 %.sroa.0.0.extract.trunc.i66, ptr %54, align 1
  %55 = getelementptr i8, ptr %0, i64 20
  store i32 %.sroa.2.0.extract.trunc.i68, ptr %55, align 1
  %56 = getelementptr i8, ptr %0, i64 24
  store i32 %.sroa.3.8.extract.trunc.i69, ptr %56, align 1
  %57 = getelementptr i8, ptr %0, i64 28
  store i32 %.sroa.5.8.extract.trunc.i71, ptr %57, align 1
  tail call fastcc void @aegis128l_update(ptr noundef %2, i64 %4, i64 %6, i64 %8, i64 %10)
  ret void
}